; Function Attrs: mustprogress nofree norecurse nosync nounwind willreturn memory(argmem: read) uwtable
define { <2 x float>, float } @_ZNK32pxrInternal_v0_24__pxrReserved__11GfDualQuatf14GetTranslationEv(ptr noundef nonnull readonly align 4 captures(none) dereferenceable(32) %0) local_unnamed_addr #6 align 2 {
  %2 = getelementptr inbounds nuw i8, ptr %0, i64 16
  %3 = getelementptr inbounds nuw i8, ptr %0, i64 28
  %4 = load float, ptr %3, align 4
  %5 = getelementptr inbounds nuw i8, ptr %0, i64 12
  %6 = load float, ptr %5, align 4
  %7 = load float, ptr %0, align 4
  %8 = load float, ptr %2, align 4
  %9 = fneg float %8
  %10 = fmul float %6, %9
  %11 = tail call float @llvm.fmuladd.f32(float %4, float %7, float %10)
  %12 = getelementptr inbounds nuw i8, ptr %0, i64 20
  %13 = load float, ptr %12, align 4
  %14 = getelementptr inbounds nuw i8, ptr %0, i64 8
  %15 = load float, ptr %14, align 4
  %16 = getelementptr inbounds nuw i8, ptr %0, i64 24
  %17 = load float, ptr %16, align 4
  %18 = getelementptr inbounds nuw i8, ptr %0, i64 4
  %19 = load float, ptr %18, align 4
  %20 = fneg float %19
  %21 = fmul float %17, %20
  %22 = tail call float @llvm.fmuladd.f32(float %13, float %15, float %21)
  %23 = fadd float %11, %22
  %24 = fmul float %23, -2.000000e+00
  %25 = fneg float %13
  %26 = fmul float %6, %25
  %27 = tail call float @llvm.fmuladd.f32(float %4, float %19, float %26)
  %28 = fneg float %15
  %29 = fmul float %8, %28
  %30 = tail call float @llvm.fmuladd.f32(float %17, float %7, float %29)
  %31 = fadd float %30, %27
  %32 = fmul float %31, -2.000000e+00
  %33 = fneg float %17
  %34 = fmul float %6, %33
  %35 = tail call float @llvm.fmuladd.f32(float %4, float %15, float %34)
  %36 = fneg float %7
  %37 = fmul float %13, %36
  %38 = tail call float @llvm.fmuladd.f32(float %8, float %19, float %37)
  %39 = fadd float %35, %38
  %40 = fmul float %39, -2.000000e+00
  %.sroa.025.0.vec.insert = insertelement <2 x float> poison, float %24, i64 0
  %.sroa.025.4.vec.insert = insertelement <2 x float> %.sroa.025.0.vec.insert, float %32, i64 1
  %.fca.0.insert = insertvalue { <2 x float>, float } poison, <2 x float> %.sroa.025.4.vec.insert, 0
  %.fca.1.insert = insertvalue { <2 x float>, float } %.fca.0.insert, float %40, 1
  ret { <2 x float>, float } %.fca.1.insert
}